ARM GAS  C:\Users\HALLER~1\AppData\Local\Temp\ccmpWvr7.s 			page 1


   1              		.syntax unified
   2              		.cpu cortex-m3
   3              		.fpu softvfp
   4              		.eabi_attribute 20, 1
   5              		.eabi_attribute 21, 1
   6              		.eabi_attribute 23, 3
   7              		.eabi_attribute 24, 1
   8              		.eabi_attribute 25, 1
   9              		.eabi_attribute 26, 1
  10              		.eabi_attribute 30, 1
  11              		.eabi_attribute 34, 1
  12              		.eabi_attribute 18, 4
  13              		.thumb
  14              		.syntax unified
  15              		.file	"main.c"
  16              		.text
  17              	.Ltext0:
  18              		.cfi_sections	.debug_frame
  19              		.section	.text.main,"ax",%progbits
  20              		.align	2
  21              		.global	main
  22              		.thumb
  23              		.thumb_func
  24              		.type	main, %function
  25              	main:
  26              	.LFB63:
  27              		.file 1 "main.c"
   1:main.c        **** /* ========================================
   2:main.c        ****  *
   3:main.c        ****  * Copyright YOUR COMPANY, THE YEAR
   4:main.c        ****  * All Rights Reserved
   5:main.c        ****  * UNPUBLISHED, LICENSED SOFTWARE.
   6:main.c        ****  *
   7:main.c        ****  * CONFIDENTIAL AND PROPRIETARY INFORMATION
   8:main.c        ****  * WHICH IS THE PROPERTY OF your company.
   9:main.c        ****  *
  10:main.c        ****  * ========================================
  11:main.c        **** */
  12:main.c        **** #include "project.h"
  13:main.c        **** 
  14:main.c        **** /*enum states {IDLE, BUSY_HIGH, BUSY_LOW, COLLISION};
  15:main.c        **** enum states currentState = IDLE;
  16:main.c        **** 
  17:main.c        **** void changeState(enum states nextState) {
  18:main.c        ****     if (nextState==IDLE) {
  19:main.c        ****         IDLE_PIN_Write(1);
  20:main.c        ****         BUSY_PIN_Write(0);
  21:main.c        ****         COLLISION_PIN_Write(0);
  22:main.c        ****     }
  23:main.c        ****     else if (nextState==BUSY_HIGH) {
  24:main.c        ****         IDLE_PIN_Write(0);
  25:main.c        ****         BUSY_PIN_Write(1);
  26:main.c        ****         COLLISION_PIN_Write(0);
  27:main.c        ****         
  28:main.c        ****         TIMER_Stop(); TIMER_WriteCounter(12720);  TIMER_Start(); //530 us
  29:main.c        ****     }
  30:main.c        ****     else if (nextState==BUSY_LOW) {
ARM GAS  C:\Users\HALLER~1\AppData\Local\Temp\ccmpWvr7.s 			page 2


  31:main.c        ****         IDLE_PIN_Write(0);
  32:main.c        ****         BUSY_PIN_Write(1);
  33:main.c        ****         COLLISION_PIN_Write(0);
  34:main.c        ****         
  35:main.c        ****         TIMER_Stop(); TIMER_WriteCounter(196800); TIMER_Start(); //8.2 ms
  36:main.c        ****     }
  37:main.c        ****     else if (nextState==COLLISION) {
  38:main.c        ****         IDLE_PIN_Write(0);
  39:main.c        ****         BUSY_PIN_Write(0);
  40:main.c        ****         COLLISION_PIN_Write(1);
  41:main.c        ****     }
  42:main.c        ****     
  43:main.c        ****     currentState = nextState;
  44:main.c        **** }
  45:main.c        **** 
  46:main.c        **** CY_ISR(RX_HANDLER) {
  47:main.c        ****     if (currentState==IDLE && RECEIVE_Read()==1) changeState(BUSY_HIGH); //second checks are redund
  48:main.c        ****     else if (currentState==BUSY_HIGH && RECEIVE_Read()==0) changeState(BUSY_LOW);
  49:main.c        ****     else if (currentState==BUSY_LOW && RECEIVE_Read()==1) changeState(BUSY_HIGH);
  50:main.c        ****     else if (currentState==COLLISION && RECEIVE_Read()==0) changeState(BUSY_LOW);
  51:main.c        **** 
  52:main.c        ****     RECEIVE_ClearInterrupt();
  53:main.c        **** }
  54:main.c        **** 
  55:main.c        **** CY_ISR(TIMER_HANDLER) {
  56:main.c        ****     if (currentState==BUSY_LOW) changeState(IDLE);
  57:main.c        ****     else if (currentState==BUSY_HIGH) changeState(COLLISION);
  58:main.c        ****     
  59:main.c        ****     TIMER_ReadStatusRegister();
  60:main.c        **** }*/
  61:main.c        **** 
  62:main.c        **** int main(void)
  63:main.c        **** {
  28              		.loc 1 63 0
  29              		.cfi_startproc
  30              		@ args = 0, pretend = 0, frame = 104
  31              		@ frame_needed = 0, uses_anonymous_args = 0
  32 0000 F0B5     		push	{r4, r5, r6, r7, lr}
  33              		.cfi_def_cfa_offset 20
  34              		.cfi_offset 4, -20
  35              		.cfi_offset 5, -16
  36              		.cfi_offset 6, -12
  37              		.cfi_offset 7, -8
  38              		.cfi_offset 14, -4
  39 0002 9BB0     		sub	sp, sp, #108
  40              		.cfi_def_cfa_offset 128
  64:main.c        ****     CyGlobalIntEnable; /* Enable global interrupts. */
  41              		.loc 1 64 0
  42              		.syntax unified
  43              	@ 64 "main.c" 1
  44 0004 62B6     		CPSIE   i
  45              	@ 0 "" 2
  65:main.c        **** 
  66:main.c        ****     /* Place your initialization/startup code here (e.g. MyInst_Start()) */
  67:main.c        **** 
  68:main.c        ****     //RX_INTERRUPT_StartEx(RX_HANDLER);
  69:main.c        ****     //TIMER_INTERRUPT_StartEx(TIMER_HANDLER);
ARM GAS  C:\Users\HALLER~1\AppData\Local\Temp\ccmpWvr7.s 			page 3


  70:main.c        ****     //TIMER_Start();
  71:main.c        ****     
  72:main.c        ****     USBUART_Start(0, USBUART_5V_OPERATION);
  46              		.loc 1 72 0
  47              		.thumb
  48              		.syntax unified
  49 0006 0121     		movs	r1, #1
  50 0008 0020     		movs	r0, #0
  51 000a FFF7FEFF 		bl	USBUART_Start
  52              	.LVL0:
  53              	.L2:
  73:main.c        ****     while (USBUART_GetConfiguration()==0);
  54              		.loc 1 73 0 discriminator 1
  55 000e FFF7FEFF 		bl	USBUART_GetConfiguration
  56              	.LVL1:
  57 0012 0028     		cmp	r0, #0
  58 0014 FBD0     		beq	.L2
  74:main.c        ****     USBUART_CDC_Init();
  59              		.loc 1 74 0
  60 0016 FFF7FEFF 		bl	USBUART_CDC_Init
  61              	.LVL2:
  75:main.c        ****     
  76:main.c        ****     USBUART_PutString("Hello World\r\n");
  62              		.loc 1 76 0
  63 001a 1D48     		ldr	r0, .L12
  64 001c FFF7FEFF 		bl	USBUART_PutString
  65              	.LVL3:
  66              	.L10:
  67              	.LBB2:
  77:main.c        ****     
  78:main.c        **** 
  79:main.c        ****     for(;;)
  80:main.c        ****     {
  81:main.c        ****         /* Place your application code here. */
  82:main.c        ****         //read the message from UART
  83:main.c        ****         char message[100];
  84:main.c        ****         int size = 0;
  68              		.loc 1 84 0
  69 0020 0027     		movs	r7, #0
  70              	.LVL4:
  71              	.L3:
  72              	.LBB3:
  85:main.c        ****         while (1) {
  86:main.c        ****             while (!USBUART_DataIsReady()); //wait for a character to be received
  73              		.loc 1 86 0 discriminator 1
  74 0022 FFF7FEFF 		bl	USBUART_DataIsReady
  75              	.LVL5:
  76 0026 0028     		cmp	r0, #0
  77 0028 FBD0     		beq	.L3
  87:main.c        ****             char c = USBUART_GetChar();
  78              		.loc 1 87 0
  79 002a FFF7FEFF 		bl	USBUART_GetChar
  80              	.LVL6:
  81 002e 0446     		mov	r4, r0
  82              	.LVL7:
  88:main.c        ****             
  89:main.c        ****             if (c=='\r') {
ARM GAS  C:\Users\HALLER~1\AppData\Local\Temp\ccmpWvr7.s 			page 4


  83              		.loc 1 89 0
  84 0030 0D28     		cmp	r0, #13
  85 0032 04D1     		bne	.L4
  90:main.c        ****                 USBUART_PutString("\r\n");
  86              		.loc 1 90 0
  87 0034 1748     		ldr	r0, .L12+4
  88              	.LVL8:
  89 0036 FFF7FEFF 		bl	USBUART_PutString
  90              	.LVL9:
  91              	.LBE3:
  92              	.LBB4:
  91:main.c        ****                 break;
  92:main.c        ****             }
  93:main.c        ****             else {
  94:main.c        ****                 USBUART_PutChar(c);
  95:main.c        ****                 message[size++] = c;
  96:main.c        ****             }
  97:main.c        ****         }
  98:main.c        ****         
  99:main.c        ****         //Write the message to TX_PIN
 100:main.c        ****        for (int i = 0; i<size; i++) {
  93              		.loc 1 100 0
  94 003a 0026     		movs	r6, #0
  95 003c 24E0     		b	.L5
  96              	.LVL10:
  97              	.L4:
  98              	.LBE4:
  99              	.LBB7:
  94:main.c        ****                 message[size++] = c;
 100              		.loc 1 94 0
 101 003e FFF7FEFF 		bl	USBUART_PutChar
 102              	.LVL11:
  95:main.c        ****             }
 103              		.loc 1 95 0
 104 0042 1AAB     		add	r3, sp, #104
 105 0044 3B44     		add	r3, r3, r7
 106 0046 03F8644C 		strb	r4, [r3, #-100]
 107 004a 0137     		adds	r7, r7, #1
 108              	.LVL12:
 109              	.LBE7:
  97:main.c        ****         
 110              		.loc 1 97 0
 111 004c E9E7     		b	.L3
 112              	.LVL13:
 113              	.L9:
 114              	.LBB8:
 115              	.LBB5:
 101:main.c        ****             uint8 c = message[i] | 0x80; //MSB is always high
 116              		.loc 1 101 0
 117 004e 1AAB     		add	r3, sp, #104
 118 0050 3344     		add	r3, r3, r6
 119 0052 13F8645C 		ldrb	r5, [r3, #-100]	@ zero_extendqisi2
 120 0056 45F08005 		orr	r5, r5, #128
 121              	.LVL14:
 122              	.LBB6:
 102:main.c        ****             
 103:main.c        ****             for (int b = 7; b>=0; b--) {
ARM GAS  C:\Users\HALLER~1\AppData\Local\Temp\ccmpWvr7.s 			page 5


 123              		.loc 1 103 0
 124 005a 0724     		movs	r4, #7
 125 005c 11E0     		b	.L7
 126              	.LVL15:
 127              	.L8:
 104:main.c        ****                 TX_PIN_Write((c>>b) & 0x01);
 128              		.loc 1 104 0 discriminator 3
 129 005e 45FA04F0 		asr	r0, r5, r4
 130 0062 00F00100 		and	r0, r0, #1
 131 0066 FFF7FEFF 		bl	TX_PIN_Write
 132              	.LVL16:
 105:main.c        ****                 CyDelayUs(500);
 133              		.loc 1 105 0 discriminator 3
 134 006a 4FF4FA70 		mov	r0, #500
 135 006e FFF7FEFF 		bl	CyDelayUs
 136              	.LVL17:
 106:main.c        ****                 TX_PIN_Write(0);
 137              		.loc 1 106 0 discriminator 3
 138 0072 0020     		movs	r0, #0
 139 0074 FFF7FEFF 		bl	TX_PIN_Write
 140              	.LVL18:
 107:main.c        ****                 CyDelayUs(500);
 141              		.loc 1 107 0 discriminator 3
 142 0078 4FF4FA70 		mov	r0, #500
 143 007c FFF7FEFF 		bl	CyDelayUs
 144              	.LVL19:
 103:main.c        ****                 TX_PIN_Write((c>>b) & 0x01);
 145              		.loc 1 103 0 discriminator 3
 146 0080 013C     		subs	r4, r4, #1
 147              	.LVL20:
 148              	.L7:
 103:main.c        ****                 TX_PIN_Write((c>>b) & 0x01);
 149              		.loc 1 103 0 is_stmt 0 discriminator 1
 150 0082 002C     		cmp	r4, #0
 151 0084 EBDA     		bge	.L8
 152              	.LBE6:
 153              	.LBE5:
 100:main.c        ****             uint8 c = message[i] | 0x80; //MSB is always high
 154              		.loc 1 100 0 is_stmt 1 discriminator 2
 155 0086 0136     		adds	r6, r6, #1
 156              	.LVL21:
 157              	.L5:
 100:main.c        ****             uint8 c = message[i] | 0x80; //MSB is always high
 158              		.loc 1 100 0 is_stmt 0 discriminator 1
 159 0088 B742     		cmp	r7, r6
 160 008a E0DC     		bgt	.L9
 161 008c C8E7     		b	.L10
 162              	.L13:
 163 008e 00BF     		.align	2
 164              	.L12:
 165 0090 00000000 		.word	.LC0
 166 0094 10000000 		.word	.LC1
 167              	.LBE8:
 168              	.LBE2:
 169              		.cfi_endproc
 170              	.LFE63:
 171              		.size	main, .-main
ARM GAS  C:\Users\HALLER~1\AppData\Local\Temp\ccmpWvr7.s 			page 6


 172              		.section	.rodata.str1.4,"aMS",%progbits,1
 173              		.align	2
 174              	.LC0:
 175 0000 48656C6C 		.ascii	"Hello World\015\012\000"
 175      6F20576F 
 175      726C640D 
 175      0A00
 176 000e 0000     		.space	2
 177              	.LC1:
 178 0010 0D0A00   		.ascii	"\015\012\000"
 179              		.text
 180              	.Letext0:
 181              		.file 2 "c:\\program files (x86)\\cypress\\psoc creator\\4.1\\psoc creator\\import\\gnu\\arm\\5.4.
 182              		.file 3 "c:\\program files (x86)\\cypress\\psoc creator\\4.1\\psoc creator\\import\\gnu\\arm\\5.4.
 183              		.file 4 "Generated_Source\\PSoC5/cytypes.h"
 184              		.file 5 "Generated_Source\\PSoC5/USBUART_cdc.h"
 185              		.file 6 "Generated_Source\\PSoC5/TX_PIN.h"
 186              		.file 7 "Generated_Source\\PSoC5/CyLib.h"
 187              		.file 8 "Generated_Source\\PSoC5/USBUART.h"
 188              		.file 9 "Generated_Source\\PSoC5/core_cm3.h"