ARM GAS  C:\Users\HALLER~1\AppData\Local\Temp\ccuFwtWE.s 			page 1


   1              		.syntax unified
   2              		.cpu cortex-m3
   3              		.fpu softvfp
   4              		.eabi_attribute 20, 1
   5              		.eabi_attribute 21, 1
   6              		.eabi_attribute 23, 3
   7              		.eabi_attribute 24, 1
   8              		.eabi_attribute 25, 1
   9              		.eabi_attribute 26, 1
  10              		.eabi_attribute 30, 1
  11              		.eabi_attribute 34, 1
  12              		.eabi_attribute 18, 4
  13              		.thumb
  14              		.syntax unified
  15              		.file	"receiver.c"
  16              		.text
  17              	.Ltext0:
  18              		.cfi_sections	.debug_frame
  19              		.section	.text.receiveByte,"ax",%progbits
  20              		.align	2
  21              		.global	receiveByte
  22              		.thumb
  23              		.thumb_func
  24              		.type	receiveByte, %function
  25              	receiveByte:
  26              	.LFB66:
  27              		.file 1 "receiver.c"
   1:receiver.c    **** /* ========================================
   2:receiver.c    ****  *
   3:receiver.c    ****  * Copyright YOUR COMPANY, THE YEAR
   4:receiver.c    ****  * All Rights Reserved
   5:receiver.c    ****  * UNPUBLISHED, LICENSED SOFTWARE.
   6:receiver.c    ****  *
   7:receiver.c    ****  * CONFIDENTIAL AND PROPRIETARY INFORMATION
   8:receiver.c    ****  * WHICH IS THE PROPERTY OF your company.
   9:receiver.c    ****  *
  10:receiver.c    ****  * ========================================
  11:receiver.c    **** */
  12:receiver.c    **** 
  13:receiver.c    **** #include <stdbool.h>
  14:receiver.c    **** #include "project.h"
  15:receiver.c    **** #include "globals.h"
  16:receiver.c    **** #include "receiver.h"
  17:receiver.c    **** 
  18:receiver.c    **** void receiveBit(bool bit);
  19:receiver.c    **** void receiveByte(uint8_t byte);
  20:receiver.c    **** 
  21:receiver.c    **** void receiver_rx_handler() {
  22:receiver.c    ****     if (RX_PIN_Read()==0) return; //receiver only cares about rising edge
  23:receiver.c    **** 
  24:receiver.c    ****     RX_TIMER_Stop(); RX_TIMER_WriteCounter(26400);  RX_TIMER_Start(); //1100 us
  25:receiver.c    ****     receiveBit(true);
  26:receiver.c    **** }
  27:receiver.c    **** 
  28:receiver.c    **** void receiver_timer_handler() {
  29:receiver.c    ****     receiveBit(false);
  30:receiver.c    **** }
ARM GAS  C:\Users\HALLER~1\AppData\Local\Temp\ccuFwtWE.s 			page 2


  31:receiver.c    **** 
  32:receiver.c    **** void receiveBit(bool bit) {
  33:receiver.c    ****     static int currentBit = 7;
  34:receiver.c    **** 	static char c;
  35:receiver.c    ****     
  36:receiver.c    ****     if (transmitting) return;
  37:receiver.c    **** 
  38:receiver.c    ****     c = c | (bit<<currentBit);
  39:receiver.c    ****     currentBit--;
  40:receiver.c    ****     if (currentBit<0) {
  41:receiver.c    ****       RX_TIMER_Stop();
  42:receiver.c    ****       receiveByte(c);
  43:receiver.c    ****       currentBit = 7;
  44:receiver.c    ****       c = '\0';
  45:receiver.c    ****     }
  46:receiver.c    **** }
  47:receiver.c    **** 
  48:receiver.c    **** void receiveByte(uint8_t byte) {
  28              		.loc 1 48 0
  29              		.cfi_startproc
  30              		@ args = 0, pretend = 0, frame = 0
  31              		@ frame_needed = 1, uses_anonymous_args = 0
  32              	.LVL0:
  33 0000 F8B5     		push	{r3, r4, r5, r6, r7, lr}
  34              		.cfi_def_cfa_offset 24
  35              		.cfi_offset 3, -24
  36              		.cfi_offset 4, -20
  37              		.cfi_offset 5, -16
  38              		.cfi_offset 6, -12
  39              		.cfi_offset 7, -8
  40              		.cfi_offset 14, -4
  41 0002 00AF     		add	r7, sp, #0
  42              		.cfi_def_cfa_register 7
  49:receiver.c    ****     static uint8_t message[52]; //7 header + 44 message + 1 CRC
  50:receiver.c    ****     static int pos = 0;
  51:receiver.c    ****     
  52:receiver.c    ****     message[pos++] = byte;
  43              		.loc 1 52 0
  44 0004 224A     		ldr	r2, .L9
  45 0006 1368     		ldr	r3, [r2]
  46 0008 591C     		adds	r1, r3, #1
  47 000a 1160     		str	r1, [r2]
  48 000c 1344     		add	r3, r3, r2
  49 000e 1871     		strb	r0, [r3, #4]
  53:receiver.c    **** 
  54:receiver.c    ****     if (pos==1 && message[0]!=0x80) pos = 0;
  50              		.loc 1 54 0
  51 0010 0129     		cmp	r1, #1
  52 0012 06D1     		bne	.L2
  53              		.loc 1 54 0 is_stmt 0 discriminator 1
  54 0014 1379     		ldrb	r3, [r2, #4]	@ zero_extendqisi2
  55 0016 802B     		cmp	r3, #128
  56 0018 03D0     		beq	.L2
  57              		.loc 1 54 0 discriminator 2
  58 001a 0022     		movs	r2, #0
  59 001c 1C4B     		ldr	r3, .L9
  60 001e 1A60     		str	r2, [r3]
ARM GAS  C:\Users\HALLER~1\AppData\Local\Temp\ccuFwtWE.s 			page 3


  61 0020 34E0     		b	.L1
  62              	.L2:
  55:receiver.c    ****     else if (pos==2 && message[1]!=0x81) pos = 0;
  63              		.loc 1 55 0 is_stmt 1
  64 0022 0229     		cmp	r1, #2
  65 0024 07D1     		bne	.L4
  66              		.loc 1 55 0 is_stmt 0 discriminator 1
  67 0026 1A4B     		ldr	r3, .L9
  68 0028 5B79     		ldrb	r3, [r3, #5]	@ zero_extendqisi2
  69 002a 812B     		cmp	r3, #129
  70 002c 03D0     		beq	.L4
  71              		.loc 1 55 0 discriminator 2
  72 002e 0022     		movs	r2, #0
  73 0030 174B     		ldr	r3, .L9
  74 0032 1A60     		str	r2, [r3]
  75 0034 2AE0     		b	.L1
  76              	.L4:
  56:receiver.c    ****     else if (pos>=8) {
  77              		.loc 1 56 0 is_stmt 1
  78 0036 0729     		cmp	r1, #7
  79 0038 28DD     		ble	.L1
  80              	.LVL1:
  81              	.LBB2:
  57:receiver.c    ****         int source = message[2] & 0x7F;
  58:receiver.c    ****         int destination = message[3] & 0x7F;
  82              		.loc 1 58 0
  83 003a 154B     		ldr	r3, .L9
  84 003c DE79     		ldrb	r6, [r3, #7]	@ zero_extendqisi2
  85 003e 06F07F06 		and	r6, r6, #127
  86              	.LVL2:
  59:receiver.c    ****         int textSize = message[4] & 0x7F;
  87              		.loc 1 59 0
  88 0042 1D7A     		ldrb	r5, [r3, #8]	@ zero_extendqisi2
  89 0044 05F07F05 		and	r5, r5, #127
  90              	.LVL3:
  60:receiver.c    ****         
  61:receiver.c    ****         if (pos==textSize+8) { //entire message has been received
  91              		.loc 1 61 0
  92 0048 05F10803 		add	r3, r5, #8
  93 004c 9942     		cmp	r1, r3
  94 004e 1DD1     		bne	.L1
  95              	.LBB3:
  96              		.loc 1 61 0 is_stmt 0 discriminator 1
  97 0050 6C46     		mov	r4, sp
  98              	.LVL4:
  62:receiver.c    ****             char text[textSize+1];
  99              		.loc 1 62 0 is_stmt 1 discriminator 1
 100 0052 23F00703 		bic	r3, r3, #7
 101 0056 ADEB030D 		sub	sp, sp, r3
 102 005a 6846     		mov	r0, sp
 103              	.LVL5:
 104              	.LBB4:
  63:receiver.c    ****             for (int i=0; i<textSize; i++) text[i] = message[i+7] & 0x7F;
 105              		.loc 1 63 0 discriminator 1
 106 005c 0023     		movs	r3, #0
 107 005e 07E0     		b	.L5
 108              	.LVL6:
ARM GAS  C:\Users\HALLER~1\AppData\Local\Temp\ccuFwtWE.s 			page 4


 109              	.L6:
 110              		.loc 1 63 0 is_stmt 0 discriminator 3
 111 0060 DA1D     		adds	r2, r3, #7
 112 0062 0B49     		ldr	r1, .L9
 113              	.LVL7:
 114 0064 0A44     		add	r2, r2, r1
 115 0066 1279     		ldrb	r2, [r2, #4]	@ zero_extendqisi2
 116 0068 02F07F02 		and	r2, r2, #127
 117 006c C254     		strb	r2, [r0, r3]
 118 006e 0133     		adds	r3, r3, #1
 119              	.LVL8:
 120              	.L5:
 121              		.loc 1 63 0 discriminator 1
 122 0070 AB42     		cmp	r3, r5
 123 0072 F5DB     		blt	.L6
 124              	.LBE4:
  64:receiver.c    ****             text[textSize] = '\0';
 125              		.loc 1 64 0 is_stmt 1
 126 0074 0023     		movs	r3, #0
 127              	.LVL9:
 128 0076 4355     		strb	r3, [r0, r5]
  65:receiver.c    ****             
  66:receiver.c    ****             if (destination==myAddress) USBUART_PutString(text);
 129              		.loc 1 66 0
 130 0078 064B     		ldr	r3, .L9+4
 131 007a 1B78     		ldrb	r3, [r3]	@ zero_extendqisi2
 132 007c B342     		cmp	r3, r6
 133 007e 01D1     		bne	.L7
 134              		.loc 1 66 0 is_stmt 0 discriminator 1
 135 0080 FFF7FEFF 		bl	USBUART_PutString
 136              	.LVL10:
 137              	.L7:
  67:receiver.c    ****             pos = 0;
 138              		.loc 1 67 0 is_stmt 1
 139 0084 0022     		movs	r2, #0
 140 0086 024B     		ldr	r3, .L9
 141 0088 1A60     		str	r2, [r3]
 142 008a A546     		mov	sp, r4
 143              	.LVL11:
 144              	.L1:
 145              	.LBE3:
 146              	.LBE2:
  68:receiver.c    ****         }
  69:receiver.c    ****     }
  70:receiver.c    **** }
 147              		.loc 1 70 0
 148 008c BD46     		mov	sp, r7
 149              		.cfi_def_cfa_register 13
 150              		@ sp needed
 151 008e F8BD     		pop	{r3, r4, r5, r6, r7, pc}
 152              	.L10:
 153              		.align	2
 154              	.L9:
 155 0090 00000000 		.word	.LANCHOR0
 156 0094 00000000 		.word	myAddress
 157              		.cfi_endproc
 158              	.LFE66:
ARM GAS  C:\Users\HALLER~1\AppData\Local\Temp\ccuFwtWE.s 			page 5


 159              		.size	receiveByte, .-receiveByte
 160              		.section	.text.receiveBit,"ax",%progbits
 161              		.align	2
 162              		.global	receiveBit
 163              		.thumb
 164              		.thumb_func
 165              		.type	receiveBit, %function
 166              	receiveBit:
 167              	.LFB65:
  32:receiver.c    ****     static int currentBit = 7;
 168              		.loc 1 32 0
 169              		.cfi_startproc
 170              		@ args = 0, pretend = 0, frame = 0
 171              		@ frame_needed = 0, uses_anonymous_args = 0
 172              	.LVL12:
  36:receiver.c    **** 
 173              		.loc 1 36 0
 174 0000 0F4B     		ldr	r3, .L15
 175 0002 1B78     		ldrb	r3, [r3]	@ zero_extendqisi2
 176 0004 DBB9     		cbnz	r3, .L14
  32:receiver.c    ****     static int currentBit = 7;
 177              		.loc 1 32 0
 178 0006 10B5     		push	{r4, lr}
 179              		.cfi_def_cfa_offset 8
 180              		.cfi_offset 4, -8
 181              		.cfi_offset 14, -4
  38:receiver.c    ****     currentBit--;
 182              		.loc 1 38 0
 183 0008 0E4A     		ldr	r2, .L15+4
 184 000a 1368     		ldr	r3, [r2]
 185 000c 9840     		lsls	r0, r0, r3
 186              	.LVL13:
 187 000e 0E49     		ldr	r1, .L15+8
 188 0010 91F83840 		ldrb	r4, [r1, #56]	@ zero_extendqisi2
 189 0014 2043     		orrs	r0, r0, r4
 190 0016 81F83800 		strb	r0, [r1, #56]
  39:receiver.c    ****     if (currentBit<0) {
 191              		.loc 1 39 0
 192 001a 013B     		subs	r3, r3, #1
 193 001c 1360     		str	r3, [r2]
  40:receiver.c    ****       RX_TIMER_Stop();
 194              		.loc 1 40 0
 195 001e 002B     		cmp	r3, #0
 196 0020 0CDA     		bge	.L11
  41:receiver.c    ****       receiveByte(c);
 197              		.loc 1 41 0
 198 0022 FFF7FEFF 		bl	RX_TIMER_Stop
 199              	.LVL14:
  42:receiver.c    ****       currentBit = 7;
 200              		.loc 1 42 0
 201 0026 084C     		ldr	r4, .L15+8
 202 0028 94F83800 		ldrb	r0, [r4, #56]	@ zero_extendqisi2
 203 002c FFF7FEFF 		bl	receiveByte
 204              	.LVL15:
  43:receiver.c    ****       c = '\0';
 205              		.loc 1 43 0
 206 0030 0722     		movs	r2, #7
ARM GAS  C:\Users\HALLER~1\AppData\Local\Temp\ccuFwtWE.s 			page 6


 207 0032 044B     		ldr	r3, .L15+4
 208 0034 1A60     		str	r2, [r3]
  44:receiver.c    ****     }
 209              		.loc 1 44 0
 210 0036 0023     		movs	r3, #0
 211 0038 84F83830 		strb	r3, [r4, #56]
 212              	.L11:
 213 003c 10BD     		pop	{r4, pc}
 214              	.LVL16:
 215              	.L14:
 216              		.cfi_def_cfa_offset 0
 217              		.cfi_restore 4
 218              		.cfi_restore 14
 219 003e 7047     		bx	lr
 220              	.L16:
 221              		.align	2
 222              	.L15:
 223 0040 00000000 		.word	transmitting
 224 0044 00000000 		.word	.LANCHOR1
 225 0048 00000000 		.word	.LANCHOR0
 226              		.cfi_endproc
 227              	.LFE65:
 228              		.size	receiveBit, .-receiveBit
 229              		.section	.text.receiver_rx_handler,"ax",%progbits
 230              		.align	2
 231              		.global	receiver_rx_handler
 232              		.thumb
 233              		.thumb_func
 234              		.type	receiver_rx_handler, %function
 235              	receiver_rx_handler:
 236              	.LFB63:
  21:receiver.c    ****     if (RX_PIN_Read()==0) return; //receiver only cares about rising edge
 237              		.loc 1 21 0
 238              		.cfi_startproc
 239              		@ args = 0, pretend = 0, frame = 0
 240              		@ frame_needed = 0, uses_anonymous_args = 0
 241 0000 08B5     		push	{r3, lr}
 242              		.cfi_def_cfa_offset 8
 243              		.cfi_offset 3, -8
 244              		.cfi_offset 14, -4
  22:receiver.c    **** 
 245              		.loc 1 22 0
 246 0002 FFF7FEFF 		bl	RX_PIN_Read
 247              	.LVL17:
 248 0006 50B1     		cbz	r0, .L17
  24:receiver.c    ****     receiveBit(true);
 249              		.loc 1 24 0
 250 0008 FFF7FEFF 		bl	RX_TIMER_Stop
 251              	.LVL18:
 252 000c 46F22070 		movw	r0, #26400
 253 0010 FFF7FEFF 		bl	RX_TIMER_WriteCounter
 254              	.LVL19:
 255 0014 FFF7FEFF 		bl	RX_TIMER_Start
 256              	.LVL20:
  25:receiver.c    **** }
 257              		.loc 1 25 0
 258 0018 0120     		movs	r0, #1
ARM GAS  C:\Users\HALLER~1\AppData\Local\Temp\ccuFwtWE.s 			page 7


 259 001a FFF7FEFF 		bl	receiveBit
 260              	.LVL21:
 261              	.L17:
 262 001e 08BD     		pop	{r3, pc}
 263              		.cfi_endproc
 264              	.LFE63:
 265              		.size	receiver_rx_handler, .-receiver_rx_handler
 266              		.section	.text.receiver_timer_handler,"ax",%progbits
 267              		.align	2
 268              		.global	receiver_timer_handler
 269              		.thumb
 270              		.thumb_func
 271              		.type	receiver_timer_handler, %function
 272              	receiver_timer_handler:
 273              	.LFB64:
  28:receiver.c    ****     receiveBit(false);
 274              		.loc 1 28 0
 275              		.cfi_startproc
 276              		@ args = 0, pretend = 0, frame = 0
 277              		@ frame_needed = 0, uses_anonymous_args = 0
 278 0000 08B5     		push	{r3, lr}
 279              		.cfi_def_cfa_offset 8
 280              		.cfi_offset 3, -8
 281              		.cfi_offset 14, -4
  29:receiver.c    **** }
 282              		.loc 1 29 0
 283 0002 0020     		movs	r0, #0
 284 0004 FFF7FEFF 		bl	receiveBit
 285              	.LVL22:
 286 0008 08BD     		pop	{r3, pc}
 287              		.cfi_endproc
 288              	.LFE64:
 289              		.size	receiver_timer_handler, .-receiver_timer_handler
 290 000a 00BF     		.data
 291              		.align	2
 292              		.set	.LANCHOR1,. + 0
 293              		.type	currentBit.6070, %object
 294              		.size	currentBit.6070, 4
 295              	currentBit.6070:
 296 0000 07000000 		.word	7
 297              		.bss
 298              		.align	2
 299              		.set	.LANCHOR0,. + 0
 300              		.type	pos.6076, %object
 301              		.size	pos.6076, 4
 302              	pos.6076:
 303 0000 00000000 		.space	4
 304              		.type	message.6075, %object
 305              		.size	message.6075, 52
 306              	message.6075:
 307 0004 00000000 		.space	52
 307      00000000 
 307      00000000 
 307      00000000 
 307      00000000 
 308              		.type	c.6071, %object
 309              		.size	c.6071, 1
ARM GAS  C:\Users\HALLER~1\AppData\Local\Temp\ccuFwtWE.s 			page 8


 310              	c.6071:
 311 0038 00       		.space	1
 312              		.text
 313              	.Letext0:
 314              		.file 2 "c:\\program files (x86)\\cypress\\psoc creator\\4.1\\psoc creator\\import\\gnu\\arm\\5.4.
 315              		.file 3 "c:\\program files (x86)\\cypress\\psoc creator\\4.1\\psoc creator\\import\\gnu\\arm\\5.4.
 316              		.file 4 "Generated_Source\\PSoC5/core_cm3.h"
 317              		.file 5 "globals.h"
 318              		.file 6 "Generated_Source\\PSoC5/USBUART_cdc.h"
 319              		.file 7 "Generated_Source\\PSoC5/RX_TIMER.h"
 320              		.file 8 "Generated_Source\\PSoC5/RX_PIN.h"