ARM GAS  C:\Users\HALLER~1\AppData\Local\Temp\ccCPGqMx.s 			page 1


   1              		.syntax unified
   2              		.cpu cortex-m3
   3              		.fpu softvfp
   4              		.eabi_attribute 20, 1
   5              		.eabi_attribute 21, 1
   6              		.eabi_attribute 23, 3
   7              		.eabi_attribute 24, 1
   8              		.eabi_attribute 25, 1
   9              		.eabi_attribute 26, 1
  10              		.eabi_attribute 30, 1
  11              		.eabi_attribute 34, 1
  12              		.eabi_attribute 18, 4
  13              		.thumb
  14              		.syntax unified
  15              		.file	"transmitter.c"
  16              		.text
  17              	.Ltext0:
  18              		.cfi_sections	.debug_frame
  19              		.section	.text.changeState,"ax",%progbits
  20              		.align	2
  21              		.global	changeState
  22              		.thumb
  23              		.thumb_func
  24              		.type	changeState, %function
  25              	changeState:
  26              	.LFB63:
  27              		.file 1 "transmitter.c"
   1:transmitter.c **** /* ========================================
   2:transmitter.c ****  *
   3:transmitter.c ****  * Copyright YOUR COMPANY, THE YEAR
   4:transmitter.c ****  * All Rights Reserved
   5:transmitter.c ****  * UNPUBLISHED, LICENSED SOFTWARE.
   6:transmitter.c ****  *
   7:transmitter.c ****  * CONFIDENTIAL AND PROPRIETARY INFORMATION
   8:transmitter.c ****  * WHICH IS THE PROPERTY OF your company.
   9:transmitter.c ****  *
  10:transmitter.c ****  * ========================================
  11:transmitter.c **** */
  12:transmitter.c **** 
  13:transmitter.c **** #include "project.h"
  14:transmitter.c **** #include "globals.h"
  15:transmitter.c **** #include "transmitter.h"
  16:transmitter.c **** #include <stdlib.h>
  17:transmitter.c **** #include <stdbool.h>
  18:transmitter.c **** 
  19:transmitter.c **** void createAndSendMessage(char *text, int textSize, int destinationAddress);
  20:transmitter.c **** void sendMessage(uint8_t *message, int size);
  21:transmitter.c **** 
  22:transmitter.c **** enum states {IDLE, BUSY_HIGH, BUSY_LOW, COLLISION};
  23:transmitter.c **** enum states currentState = IDLE;
  24:transmitter.c **** bool collisionOccured = false;
  25:transmitter.c **** 
  26:transmitter.c **** void changeState(enum states nextState) {
  28              		.loc 1 26 0
  29              		.cfi_startproc
  30              		@ args = 0, pretend = 0, frame = 0
  31              		@ frame_needed = 0, uses_anonymous_args = 0
ARM GAS  C:\Users\HALLER~1\AppData\Local\Temp\ccCPGqMx.s 			page 2


  32              	.LVL0:
  33 0000 10B5     		push	{r4, lr}
  34              		.cfi_def_cfa_offset 8
  35              		.cfi_offset 4, -8
  36              		.cfi_offset 14, -4
  27:transmitter.c ****     if (nextState==IDLE) {
  37              		.loc 1 27 0
  38 0002 0446     		mov	r4, r0
  39 0004 48B9     		cbnz	r0, .L2
  28:transmitter.c ****         IDLE_PIN_Write(1);
  40              		.loc 1 28 0
  41 0006 0120     		movs	r0, #1
  42              	.LVL1:
  43 0008 FFF7FEFF 		bl	IDLE_PIN_Write
  44              	.LVL2:
  29:transmitter.c ****         BUSY_PIN_Write(0);
  45              		.loc 1 29 0
  46 000c 0020     		movs	r0, #0
  47 000e FFF7FEFF 		bl	BUSY_PIN_Write
  48              	.LVL3:
  30:transmitter.c ****         COLLISION_PIN_Write(0);
  49              		.loc 1 30 0
  50 0012 0020     		movs	r0, #0
  51 0014 FFF7FEFF 		bl	COLLISION_PIN_Write
  52              	.LVL4:
  53 0018 34E0     		b	.L3
  54              	.LVL5:
  55              	.L2:
  31:transmitter.c ****     }
  32:transmitter.c ****     else if (nextState==BUSY_HIGH) {
  56              		.loc 1 32 0
  57 001a 0128     		cmp	r0, #1
  58 001c 11D1     		bne	.L4
  33:transmitter.c ****         IDLE_PIN_Write(0);
  59              		.loc 1 33 0
  60 001e 0020     		movs	r0, #0
  61              	.LVL6:
  62 0020 FFF7FEFF 		bl	IDLE_PIN_Write
  63              	.LVL7:
  34:transmitter.c ****         BUSY_PIN_Write(1);
  64              		.loc 1 34 0
  65 0024 0120     		movs	r0, #1
  66 0026 FFF7FEFF 		bl	BUSY_PIN_Write
  67              	.LVL8:
  35:transmitter.c ****         COLLISION_PIN_Write(0);
  68              		.loc 1 35 0
  69 002a 0020     		movs	r0, #0
  70 002c FFF7FEFF 		bl	COLLISION_PIN_Write
  71              	.LVL9:
  36:transmitter.c ****         
  37:transmitter.c ****         TX_TIMER_Stop(); TX_TIMER_WriteCounter(12720);  TX_TIMER_Start(); //530 us
  72              		.loc 1 37 0
  73 0030 FFF7FEFF 		bl	TX_TIMER_Stop
  74              	.LVL10:
  75 0034 43F2B010 		movw	r0, #12720
  76 0038 FFF7FEFF 		bl	TX_TIMER_WriteCounter
  77              	.LVL11:
ARM GAS  C:\Users\HALLER~1\AppData\Local\Temp\ccCPGqMx.s 			page 3


  78 003c FFF7FEFF 		bl	TX_TIMER_Start
  79              	.LVL12:
  80 0040 20E0     		b	.L3
  81              	.LVL13:
  82              	.L4:
  38:transmitter.c ****     }
  39:transmitter.c ****     else if (nextState==BUSY_LOW) {
  83              		.loc 1 39 0
  84 0042 0228     		cmp	r0, #2
  85 0044 10D1     		bne	.L5
  40:transmitter.c ****         IDLE_PIN_Write(0);
  86              		.loc 1 40 0
  87 0046 0020     		movs	r0, #0
  88              	.LVL14:
  89 0048 FFF7FEFF 		bl	IDLE_PIN_Write
  90              	.LVL15:
  41:transmitter.c ****         BUSY_PIN_Write(1);
  91              		.loc 1 41 0
  92 004c 0120     		movs	r0, #1
  93 004e FFF7FEFF 		bl	BUSY_PIN_Write
  94              	.LVL16:
  42:transmitter.c ****         COLLISION_PIN_Write(0);
  95              		.loc 1 42 0
  96 0052 0020     		movs	r0, #0
  97 0054 FFF7FEFF 		bl	COLLISION_PIN_Write
  98              	.LVL17:
  43:transmitter.c ****         
  44:transmitter.c ****         TX_TIMER_Stop(); TX_TIMER_WriteCounter(196800); TX_TIMER_Start(); //8.2 ms
  99              		.loc 1 44 0
 100 0058 FFF7FEFF 		bl	TX_TIMER_Stop
 101              	.LVL18:
 102 005c 0B48     		ldr	r0, .L7
 103 005e FFF7FEFF 		bl	TX_TIMER_WriteCounter
 104              	.LVL19:
 105 0062 FFF7FEFF 		bl	TX_TIMER_Start
 106              	.LVL20:
 107 0066 0DE0     		b	.L3
 108              	.LVL21:
 109              	.L5:
  45:transmitter.c ****     }
  46:transmitter.c ****     else if (nextState==COLLISION) {
 110              		.loc 1 46 0
 111 0068 0328     		cmp	r0, #3
 112 006a 0BD1     		bne	.L3
  47:transmitter.c ****         IDLE_PIN_Write(0);
 113              		.loc 1 47 0
 114 006c 0020     		movs	r0, #0
 115              	.LVL22:
 116 006e FFF7FEFF 		bl	IDLE_PIN_Write
 117              	.LVL23:
  48:transmitter.c ****         BUSY_PIN_Write(0);
 118              		.loc 1 48 0
 119 0072 0020     		movs	r0, #0
 120 0074 FFF7FEFF 		bl	BUSY_PIN_Write
 121              	.LVL24:
  49:transmitter.c ****         COLLISION_PIN_Write(1);
 122              		.loc 1 49 0
ARM GAS  C:\Users\HALLER~1\AppData\Local\Temp\ccCPGqMx.s 			page 4


 123 0078 0120     		movs	r0, #1
 124 007a FFF7FEFF 		bl	COLLISION_PIN_Write
 125              	.LVL25:
  50:transmitter.c ****         collisionOccured = true;
 126              		.loc 1 50 0
 127 007e 0122     		movs	r2, #1
 128 0080 034B     		ldr	r3, .L7+4
 129 0082 1A70     		strb	r2, [r3]
 130              	.L3:
  51:transmitter.c ****     }
  52:transmitter.c ****     
  53:transmitter.c ****     currentState = nextState;
 131              		.loc 1 53 0
 132 0084 024B     		ldr	r3, .L7+4
 133 0086 5C70     		strb	r4, [r3, #1]
 134 0088 10BD     		pop	{r4, pc}
 135              	.L8:
 136 008a 00BF     		.align	2
 137              	.L7:
 138 008c C0000300 		.word	196800
 139 0090 00000000 		.word	.LANCHOR0
 140              		.cfi_endproc
 141              	.LFE63:
 142              		.size	changeState, .-changeState
 143              		.section	.text.transmitter_rx_handler,"ax",%progbits
 144              		.align	2
 145              		.global	transmitter_rx_handler
 146              		.thumb
 147              		.thumb_func
 148              		.type	transmitter_rx_handler, %function
 149              	transmitter_rx_handler:
 150              	.LFB64:
  54:transmitter.c **** }
  55:transmitter.c **** 
  56:transmitter.c **** void transmitter_rx_handler() {
 151              		.loc 1 56 0
 152              		.cfi_startproc
 153              		@ args = 0, pretend = 0, frame = 0
 154              		@ frame_needed = 0, uses_anonymous_args = 0
 155 0000 08B5     		push	{r3, lr}
 156              		.cfi_def_cfa_offset 8
 157              		.cfi_offset 3, -8
 158              		.cfi_offset 14, -4
  57:transmitter.c ****     if (currentState==IDLE && RX_PIN_Read()==1) changeState(BUSY_HIGH); //second checks are redunda
 159              		.loc 1 57 0
 160 0002 154B     		ldr	r3, .L15
 161 0004 5B78     		ldrb	r3, [r3, #1]	@ zero_extendqisi2
 162 0006 33B9     		cbnz	r3, .L10
 163              		.loc 1 57 0 is_stmt 0 discriminator 1
 164 0008 FFF7FEFF 		bl	RX_PIN_Read
 165              	.LVL26:
 166 000c 0128     		cmp	r0, #1
 167 000e 02D1     		bne	.L10
 168              		.loc 1 57 0 discriminator 2
 169 0010 FFF7FEFF 		bl	changeState
 170              	.LVL27:
 171 0014 08BD     		pop	{r3, pc}
ARM GAS  C:\Users\HALLER~1\AppData\Local\Temp\ccCPGqMx.s 			page 5


 172              	.L10:
  58:transmitter.c ****     else if (currentState==BUSY_HIGH && RX_PIN_Read()==0) changeState(BUSY_LOW);
 173              		.loc 1 58 0 is_stmt 1
 174 0016 104B     		ldr	r3, .L15
 175 0018 5B78     		ldrb	r3, [r3, #1]	@ zero_extendqisi2
 176 001a 012B     		cmp	r3, #1
 177 001c 06D1     		bne	.L12
 178              		.loc 1 58 0 is_stmt 0 discriminator 1
 179 001e FFF7FEFF 		bl	RX_PIN_Read
 180              	.LVL28:
 181 0022 18B9     		cbnz	r0, .L12
 182              		.loc 1 58 0 discriminator 2
 183 0024 0220     		movs	r0, #2
 184 0026 FFF7FEFF 		bl	changeState
 185              	.LVL29:
 186 002a 08BD     		pop	{r3, pc}
 187              	.L12:
  59:transmitter.c ****     else if (currentState==BUSY_LOW && RX_PIN_Read()==1) changeState(BUSY_HIGH);
 188              		.loc 1 59 0 is_stmt 1
 189 002c 0A4B     		ldr	r3, .L15
 190 002e 5B78     		ldrb	r3, [r3, #1]	@ zero_extendqisi2
 191 0030 022B     		cmp	r3, #2
 192 0032 06D1     		bne	.L13
 193              		.loc 1 59 0 is_stmt 0 discriminator 1
 194 0034 FFF7FEFF 		bl	RX_PIN_Read
 195              	.LVL30:
 196 0038 0128     		cmp	r0, #1
 197 003a 02D1     		bne	.L13
 198              		.loc 1 59 0 discriminator 2
 199 003c FFF7FEFF 		bl	changeState
 200              	.LVL31:
 201 0040 08BD     		pop	{r3, pc}
 202              	.L13:
  60:transmitter.c ****     else if (currentState==COLLISION && RX_PIN_Read()==0) changeState(BUSY_LOW);
 203              		.loc 1 60 0 is_stmt 1
 204 0042 054B     		ldr	r3, .L15
 205 0044 5B78     		ldrb	r3, [r3, #1]	@ zero_extendqisi2
 206 0046 032B     		cmp	r3, #3
 207 0048 05D1     		bne	.L9
 208              		.loc 1 60 0 is_stmt 0 discriminator 1
 209 004a FFF7FEFF 		bl	RX_PIN_Read
 210              	.LVL32:
 211 004e 10B9     		cbnz	r0, .L9
 212              		.loc 1 60 0 discriminator 2
 213 0050 0220     		movs	r0, #2
 214 0052 FFF7FEFF 		bl	changeState
 215              	.LVL33:
 216              	.L9:
 217 0056 08BD     		pop	{r3, pc}
 218              	.L16:
 219              		.align	2
 220              	.L15:
 221 0058 00000000 		.word	.LANCHOR0
 222              		.cfi_endproc
 223              	.LFE64:
 224              		.size	transmitter_rx_handler, .-transmitter_rx_handler
 225              		.section	.text.transmitter_timer_handler,"ax",%progbits
ARM GAS  C:\Users\HALLER~1\AppData\Local\Temp\ccCPGqMx.s 			page 6


 226              		.align	2
 227              		.global	transmitter_timer_handler
 228              		.thumb
 229              		.thumb_func
 230              		.type	transmitter_timer_handler, %function
 231              	transmitter_timer_handler:
 232              	.LFB65:
  61:transmitter.c **** }
  62:transmitter.c **** 
  63:transmitter.c **** void transmitter_timer_handler() {
 233              		.loc 1 63 0 is_stmt 1
 234              		.cfi_startproc
 235              		@ args = 0, pretend = 0, frame = 0
 236              		@ frame_needed = 0, uses_anonymous_args = 0
 237 0000 08B5     		push	{r3, lr}
 238              		.cfi_def_cfa_offset 8
 239              		.cfi_offset 3, -8
 240              		.cfi_offset 14, -4
  64:transmitter.c ****     if (currentState==BUSY_LOW) changeState(IDLE);
 241              		.loc 1 64 0
 242 0002 074B     		ldr	r3, .L21
 243 0004 5B78     		ldrb	r3, [r3, #1]	@ zero_extendqisi2
 244 0006 022B     		cmp	r3, #2
 245 0008 03D1     		bne	.L18
 246              		.loc 1 64 0 is_stmt 0 discriminator 1
 247 000a 0020     		movs	r0, #0
 248 000c FFF7FEFF 		bl	changeState
 249              	.LVL34:
 250 0010 08BD     		pop	{r3, pc}
 251              	.L18:
  65:transmitter.c ****     else if (currentState==BUSY_HIGH) changeState(COLLISION);
 252              		.loc 1 65 0 is_stmt 1
 253 0012 012B     		cmp	r3, #1
 254 0014 02D1     		bne	.L17
 255              		.loc 1 65 0 is_stmt 0 discriminator 1
 256 0016 0320     		movs	r0, #3
 257 0018 FFF7FEFF 		bl	changeState
 258              	.LVL35:
 259              	.L17:
 260 001c 08BD     		pop	{r3, pc}
 261              	.L22:
 262 001e 00BF     		.align	2
 263              	.L21:
 264 0020 00000000 		.word	.LANCHOR0
 265              		.cfi_endproc
 266              	.LFE65:
 267              		.size	transmitter_timer_handler, .-transmitter_timer_handler
 268              		.section	.text.sendMessage,"ax",%progbits
 269              		.align	2
 270              		.global	sendMessage
 271              		.thumb
 272              		.thumb_func
 273              		.type	sendMessage, %function
 274              	sendMessage:
 275              	.LFB68:
  66:transmitter.c **** }
  67:transmitter.c **** 
ARM GAS  C:\Users\HALLER~1\AppData\Local\Temp\ccCPGqMx.s 			page 7


  68:transmitter.c **** void transmitter_uart_handler(char c) {
  69:transmitter.c ****     static bool gettingDestination = true; //true while getting destination address, false while ge
  70:transmitter.c ****     static int destination;
  71:transmitter.c ****     static char text[44];
  72:transmitter.c ****     static int textSize = 0;
  73:transmitter.c ****     
  74:transmitter.c ****     if (gettingDestination) {
  75:transmitter.c ****         if (c!='\r') {
  76:transmitter.c ****             USBUART_PutChar(c);
  77:transmitter.c ****             text[textSize++] = c;
  78:transmitter.c ****         }
  79:transmitter.c ****         else {
  80:transmitter.c ****             USBUART_PutString("\r\nEnter Message: ");
  81:transmitter.c ****             text[textSize] = '\0';
  82:transmitter.c ****             destination = atoi(text);
  83:transmitter.c ****             textSize = 0;
  84:transmitter.c ****             gettingDestination = false;
  85:transmitter.c ****         }
  86:transmitter.c ****     }
  87:transmitter.c ****     else {
  88:transmitter.c ****         if (c!='\r') {
  89:transmitter.c ****             USBUART_PutChar(c);
  90:transmitter.c ****             text[textSize++] = c;
  91:transmitter.c ****         }
  92:transmitter.c ****         else {
  93:transmitter.c ****             USBUART_PutString("\r\nDestination: ");
  94:transmitter.c ****             createAndSendMessage(text, textSize, destination);
  95:transmitter.c ****             textSize = 0;
  96:transmitter.c ****             gettingDestination = true;
  97:transmitter.c ****         }
  98:transmitter.c ****     }
  99:transmitter.c **** }
 100:transmitter.c **** 
 101:transmitter.c **** void createAndSendMessage(char *text, int textSize, int destinationAddress) {
 102:transmitter.c ****     uint8_t message[52]; //7 header + 44 message + 1 CRC
 103:transmitter.c ****     int pos = 0;
 104:transmitter.c ****     
 105:transmitter.c ****     message[pos++] = 0x80; //Start of header
 106:transmitter.c ****     message[pos++] = 0x81; //Version number
 107:transmitter.c ****     message[pos++] = myAddress;
 108:transmitter.c ****     message[pos++] = destinationAddress;
 109:transmitter.c ****     message[pos++] = textSize;
 110:transmitter.c ****     message[pos++] = 0x80; //CRCs are not used
 111:transmitter.c ****     message[pos++] = 0xF7; //Header CRC is not used
 112:transmitter.c ****     for (int i = 0; i<textSize; i++) message[pos++] = text[i];
 113:transmitter.c ****     message[pos++] = 0xF7; //Message CRC is not used
 114:transmitter.c ****     
 115:transmitter.c ****     sendMessage(message, textSize+8);
 116:transmitter.c **** }
 117:transmitter.c **** 
 118:transmitter.c **** void sendMessage(uint8_t *message, int size) {
 276              		.loc 1 118 0 is_stmt 1
 277              		.cfi_startproc
 278              		@ args = 0, pretend = 0, frame = 0
 279              		@ frame_needed = 0, uses_anonymous_args = 0
 280              	.LVL36:
 281 0000 2DE9F041 		push	{r4, r5, r6, r7, r8, lr}
ARM GAS  C:\Users\HALLER~1\AppData\Local\Temp\ccCPGqMx.s 			page 8


 282              		.cfi_def_cfa_offset 24
 283              		.cfi_offset 4, -24
 284              		.cfi_offset 5, -20
 285              		.cfi_offset 6, -16
 286              		.cfi_offset 7, -12
 287              		.cfi_offset 8, -8
 288              		.cfi_offset 14, -4
 289 0004 8046     		mov	r8, r0
 290 0006 0F46     		mov	r7, r1
 291              	.L24:
 119:transmitter.c ****     while (currentState!=IDLE);
 292              		.loc 1 119 0 discriminator 1
 293 0008 264B     		ldr	r3, .L35
 294 000a 5B78     		ldrb	r3, [r3, #1]	@ zero_extendqisi2
 295 000c 002B     		cmp	r3, #0
 296 000e FBD1     		bne	.L24
 120:transmitter.c ****     collisionOccured = false;
 297              		.loc 1 120 0
 298 0010 0022     		movs	r2, #0
 299 0012 244B     		ldr	r3, .L35
 300 0014 1A70     		strb	r2, [r3]
 121:transmitter.c ****     transmitting = true;
 301              		.loc 1 121 0
 302 0016 0122     		movs	r2, #1
 303 0018 234B     		ldr	r3, .L35+4
 304 001a 1A70     		strb	r2, [r3]
 305              	.LVL37:
 306              	.L33:
 307              	.LBB2:
 122:transmitter.c ****     while (true) {
 123:transmitter.c ****         for (int i = 0; i<size; i++) {
 308              		.loc 1 123 0
 309 001c 0026     		movs	r6, #0
 310 001e 20E0     		b	.L25
 311              	.LVL38:
 312              	.L30:
 313              	.LBB3:
 124:transmitter.c ****             uint8 c = message[i] | 0x80; //MSB is always high
 314              		.loc 1 124 0
 315 0020 18F80650 		ldrb	r5, [r8, r6]	@ zero_extendqisi2
 316 0024 45F08005 		orr	r5, r5, #128
 317              	.LVL39:
 318              	.LBB4:
 125:transmitter.c ****             
 126:transmitter.c ****             for (int b = 7; b>=0; b--) {
 319              		.loc 1 126 0
 320 0028 0724     		movs	r4, #7
 321 002a 14E0     		b	.L26
 322              	.LVL40:
 323              	.L28:
 127:transmitter.c ****                 TX_PIN_Write((c>>b) & 0x01);
 324              		.loc 1 127 0
 325 002c 45FA04F0 		asr	r0, r5, r4
 326 0030 00F00100 		and	r0, r0, #1
 327 0034 FFF7FEFF 		bl	TX_PIN_Write
 328              	.LVL41:
 128:transmitter.c ****                 CyDelayUs(500);
ARM GAS  C:\Users\HALLER~1\AppData\Local\Temp\ccCPGqMx.s 			page 9


 329              		.loc 1 128 0
 330 0038 4FF4FA70 		mov	r0, #500
 331 003c FFF7FEFF 		bl	CyDelayUs
 332              	.LVL42:
 129:transmitter.c ****                 TX_PIN_Write(0);
 333              		.loc 1 129 0
 334 0040 0020     		movs	r0, #0
 335 0042 FFF7FEFF 		bl	TX_PIN_Write
 336              	.LVL43:
 130:transmitter.c ****                 CyDelayUs(500);
 337              		.loc 1 130 0
 338 0046 4FF4FA70 		mov	r0, #500
 339 004a FFF7FEFF 		bl	CyDelayUs
 340              	.LVL44:
 131:transmitter.c ****                 
 132:transmitter.c ****                 if (collisionOccured) break;
 341              		.loc 1 132 0
 342 004e 154B     		ldr	r3, .L35
 343 0050 1B78     		ldrb	r3, [r3]	@ zero_extendqisi2
 344 0052 13B9     		cbnz	r3, .L27
 126:transmitter.c ****                 TX_PIN_Write((c>>b) & 0x01);
 345              		.loc 1 126 0 discriminator 2
 346 0054 013C     		subs	r4, r4, #1
 347              	.LVL45:
 348              	.L26:
 126:transmitter.c ****                 TX_PIN_Write((c>>b) & 0x01);
 349              		.loc 1 126 0 is_stmt 0 discriminator 1
 350 0056 002C     		cmp	r4, #0
 351 0058 E8DA     		bge	.L28
 352              	.L27:
 353              	.LBE4:
 133:transmitter.c ****             }
 134:transmitter.c ****             
 135:transmitter.c ****             if (collisionOccured) break;
 354              		.loc 1 135 0 is_stmt 1
 355 005a 124B     		ldr	r3, .L35
 356 005c 1B78     		ldrb	r3, [r3]	@ zero_extendqisi2
 357 005e 13B9     		cbnz	r3, .L29
 358              	.LBE3:
 123:transmitter.c ****             uint8 c = message[i] | 0x80; //MSB is always high
 359              		.loc 1 123 0 discriminator 2
 360 0060 0136     		adds	r6, r6, #1
 361              	.LVL46:
 362              	.L25:
 123:transmitter.c ****             uint8 c = message[i] | 0x80; //MSB is always high
 363              		.loc 1 123 0 is_stmt 0 discriminator 1
 364 0062 BE42     		cmp	r6, r7
 365 0064 DCDB     		blt	.L30
 366              	.L29:
 367              	.LBE2:
 136:transmitter.c ****         }
 137:transmitter.c ****         
 138:transmitter.c ****         if (collisionOccured) {
 368              		.loc 1 138 0 is_stmt 1
 369 0066 0F4B     		ldr	r3, .L35
 370 0068 1B78     		ldrb	r3, [r3]	@ zero_extendqisi2
 371 006a ABB1     		cbz	r3, .L31
ARM GAS  C:\Users\HALLER~1\AppData\Local\Temp\ccCPGqMx.s 			page 10


 139:transmitter.c ****             CyDelay(rand()%1000);
 372              		.loc 1 139 0
 373 006c FFF7FEFF 		bl	rand
 374              	.LVL47:
 375 0070 0E4B     		ldr	r3, .L35+8
 376 0072 83FB0032 		smull	r3, r2, r3, r0
 377 0076 C317     		asrs	r3, r0, #31
 378 0078 C3EBA213 		rsb	r3, r3, r2, asr #6
 379 007c 4FF47A72 		mov	r2, #1000
 380 0080 02FB1300 		mls	r0, r2, r3, r0
 381 0084 FFF7FEFF 		bl	CyDelay
 382              	.LVL48:
 383              	.L32:
 140:transmitter.c ****             while (currentState!=IDLE);
 384              		.loc 1 140 0 discriminator 1
 385 0088 064B     		ldr	r3, .L35
 386 008a 5B78     		ldrb	r3, [r3, #1]	@ zero_extendqisi2
 387 008c 002B     		cmp	r3, #0
 388 008e FBD1     		bne	.L32
 141:transmitter.c ****             collisionOccured = false;
 389              		.loc 1 141 0
 390 0090 0022     		movs	r2, #0
 391 0092 044B     		ldr	r3, .L35
 392 0094 1A70     		strb	r2, [r3]
 142:transmitter.c ****         }
 143:transmitter.c ****         else break;
 144:transmitter.c ****     }
 393              		.loc 1 144 0
 394 0096 C1E7     		b	.L33
 395              	.L31:
 145:transmitter.c ****     
 146:transmitter.c ****     transmitting = false;
 396              		.loc 1 146 0
 397 0098 0022     		movs	r2, #0
 398 009a 034B     		ldr	r3, .L35+4
 399 009c 1A70     		strb	r2, [r3]
 400 009e BDE8F081 		pop	{r4, r5, r6, r7, r8, pc}
 401              	.LVL49:
 402              	.L36:
 403 00a2 00BF     		.align	2
 404              	.L35:
 405 00a4 00000000 		.word	.LANCHOR0
 406 00a8 00000000 		.word	transmitting
 407 00ac D34D6210 		.word	274877907
 408              		.cfi_endproc
 409              	.LFE68:
 410              		.size	sendMessage, .-sendMessage
 411              		.section	.text.createAndSendMessage,"ax",%progbits
 412              		.align	2
 413              		.global	createAndSendMessage
 414              		.thumb
 415              		.thumb_func
 416              		.type	createAndSendMessage, %function
 417              	createAndSendMessage:
 418              	.LFB67:
 101:transmitter.c ****     uint8_t message[52]; //7 header + 44 message + 1 CRC
 419              		.loc 1 101 0
ARM GAS  C:\Users\HALLER~1\AppData\Local\Temp\ccCPGqMx.s 			page 11


 420              		.cfi_startproc
 421              		@ args = 0, pretend = 0, frame = 56
 422              		@ frame_needed = 0, uses_anonymous_args = 0
 423              	.LVL50:
 424 0000 30B5     		push	{r4, r5, lr}
 425              		.cfi_def_cfa_offset 12
 426              		.cfi_offset 4, -12
 427              		.cfi_offset 5, -8
 428              		.cfi_offset 14, -4
 429 0002 8FB0     		sub	sp, sp, #60
 430              		.cfi_def_cfa_offset 72
 431              	.LVL51:
 105:transmitter.c ****     message[pos++] = 0x81; //Version number
 432              		.loc 1 105 0
 433 0004 8023     		movs	r3, #128
 434 0006 8DF80430 		strb	r3, [sp, #4]
 435              	.LVL52:
 106:transmitter.c ****     message[pos++] = myAddress;
 436              		.loc 1 106 0
 437 000a 8124     		movs	r4, #129
 438 000c 8DF80540 		strb	r4, [sp, #5]
 439              	.LVL53:
 107:transmitter.c ****     message[pos++] = destinationAddress;
 440              		.loc 1 107 0
 441 0010 114C     		ldr	r4, .L41
 442 0012 2478     		ldrb	r4, [r4]	@ zero_extendqisi2
 443 0014 8DF80640 		strb	r4, [sp, #6]
 444              	.LVL54:
 108:transmitter.c ****     message[pos++] = textSize;
 445              		.loc 1 108 0
 446 0018 8DF80720 		strb	r2, [sp, #7]
 447              	.LVL55:
 109:transmitter.c ****     message[pos++] = 0x80; //CRCs are not used
 448              		.loc 1 109 0
 449 001c 8DF80810 		strb	r1, [sp, #8]
 450              	.LVL56:
 110:transmitter.c ****     message[pos++] = 0xF7; //Header CRC is not used
 451              		.loc 1 110 0
 452 0020 8DF80930 		strb	r3, [sp, #9]
 453              	.LVL57:
 111:transmitter.c ****     for (int i = 0; i<textSize; i++) message[pos++] = text[i];
 454              		.loc 1 111 0
 455 0024 F723     		movs	r3, #247
 456 0026 8DF80A30 		strb	r3, [sp, #10]
 457              	.LVL58:
 458              	.LBB5:
 112:transmitter.c ****     message[pos++] = 0xF7; //Message CRC is not used
 459              		.loc 1 112 0
 460 002a 0023     		movs	r3, #0
 461              	.LBE5:
 111:transmitter.c ****     for (int i = 0; i<textSize; i++) message[pos++] = text[i];
 462              		.loc 1 111 0
 463 002c 0722     		movs	r2, #7
 464              	.LVL59:
 465              	.LBB6:
 112:transmitter.c ****     message[pos++] = 0xF7; //Message CRC is not used
 466              		.loc 1 112 0
ARM GAS  C:\Users\HALLER~1\AppData\Local\Temp\ccCPGqMx.s 			page 12


 467 002e 06E0     		b	.L38
 468              	.LVL60:
 469              	.L39:
 112:transmitter.c ****     message[pos++] = 0xF7; //Message CRC is not used
 470              		.loc 1 112 0 is_stmt 0 discriminator 3
 471 0030 C55C     		ldrb	r5, [r0, r3]	@ zero_extendqisi2
 472 0032 0EAC     		add	r4, sp, #56
 473 0034 1444     		add	r4, r4, r2
 474 0036 04F8345C 		strb	r5, [r4, #-52]
 475 003a 0133     		adds	r3, r3, #1
 476              	.LVL61:
 477 003c 0132     		adds	r2, r2, #1
 478              	.LVL62:
 479              	.L38:
 112:transmitter.c ****     message[pos++] = 0xF7; //Message CRC is not used
 480              		.loc 1 112 0 discriminator 1
 481 003e 8B42     		cmp	r3, r1
 482 0040 F6DB     		blt	.L39
 483              	.LVL63:
 484              	.LBE6:
 113:transmitter.c ****     
 485              		.loc 1 113 0 is_stmt 1
 486 0042 0EAB     		add	r3, sp, #56
 487              	.LVL64:
 488 0044 1A44     		add	r2, r2, r3
 489              	.LVL65:
 490 0046 F723     		movs	r3, #247
 491 0048 02F8343C 		strb	r3, [r2, #-52]
 115:transmitter.c **** }
 492              		.loc 1 115 0
 493 004c 0831     		adds	r1, r1, #8
 494              	.LVL66:
 495 004e 01A8     		add	r0, sp, #4
 496              	.LVL67:
 497 0050 FFF7FEFF 		bl	sendMessage
 498              	.LVL68:
 116:transmitter.c **** 
 499              		.loc 1 116 0
 500 0054 0FB0     		add	sp, sp, #60
 501              		.cfi_def_cfa_offset 12
 502              		@ sp needed
 503 0056 30BD     		pop	{r4, r5, pc}
 504              	.L42:
 505              		.align	2
 506              	.L41:
 507 0058 00000000 		.word	myAddress
 508              		.cfi_endproc
 509              	.LFE67:
 510              		.size	createAndSendMessage, .-createAndSendMessage
 511              		.section	.text.transmitter_uart_handler,"ax",%progbits
 512              		.align	2
 513              		.global	transmitter_uart_handler
 514              		.thumb
 515              		.thumb_func
 516              		.type	transmitter_uart_handler, %function
 517              	transmitter_uart_handler:
 518              	.LFB66:
ARM GAS  C:\Users\HALLER~1\AppData\Local\Temp\ccCPGqMx.s 			page 13


  68:transmitter.c ****     static bool gettingDestination = true; //true while getting destination address, false while ge
 519              		.loc 1 68 0
 520              		.cfi_startproc
 521              		@ args = 0, pretend = 0, frame = 0
 522              		@ frame_needed = 0, uses_anonymous_args = 0
 523              	.LVL69:
 524 0000 38B5     		push	{r3, r4, r5, lr}
 525              		.cfi_def_cfa_offset 16
 526              		.cfi_offset 3, -16
 527              		.cfi_offset 4, -12
 528              		.cfi_offset 5, -8
 529              		.cfi_offset 14, -4
 530 0002 0446     		mov	r4, r0
  74:transmitter.c ****         if (c!='\r') {
 531              		.loc 1 74 0
 532 0004 1C4B     		ldr	r3, .L49
 533 0006 1B78     		ldrb	r3, [r3]	@ zero_extendqisi2
 534 0008 DBB1     		cbz	r3, .L44
  75:transmitter.c ****             USBUART_PutChar(c);
 535              		.loc 1 75 0
 536 000a 0D28     		cmp	r0, #13
 537 000c 08D0     		beq	.L45
  76:transmitter.c ****             text[textSize++] = c;
 538              		.loc 1 76 0
 539 000e FFF7FEFF 		bl	USBUART_PutChar
 540              	.LVL70:
  77:transmitter.c ****         }
 541              		.loc 1 77 0
 542 0012 1A4A     		ldr	r2, .L49+4
 543 0014 5368     		ldr	r3, [r2, #4]
 544 0016 591C     		adds	r1, r3, #1
 545 0018 5160     		str	r1, [r2, #4]
 546 001a 1344     		add	r3, r3, r2
 547 001c 1C72     		strb	r4, [r3, #8]
 548 001e 38BD     		pop	{r3, r4, r5, pc}
 549              	.LVL71:
 550              	.L45:
  80:transmitter.c ****             text[textSize] = '\0';
 551              		.loc 1 80 0
 552 0020 1748     		ldr	r0, .L49+8
 553              	.LVL72:
 554 0022 FFF7FEFF 		bl	USBUART_PutString
 555              	.LVL73:
  81:transmitter.c ****             destination = atoi(text);
 556              		.loc 1 81 0
 557 0026 154C     		ldr	r4, .L49+4
 558 0028 6368     		ldr	r3, [r4, #4]
 559 002a 2344     		add	r3, r3, r4
 560 002c 0025     		movs	r5, #0
 561 002e 1D72     		strb	r5, [r3, #8]
  82:transmitter.c ****             textSize = 0;
 562              		.loc 1 82 0
 563 0030 04F10800 		add	r0, r4, #8
 564 0034 FFF7FEFF 		bl	atoi
 565              	.LVL74:
 566 0038 6063     		str	r0, [r4, #52]
  83:transmitter.c ****             gettingDestination = false;
ARM GAS  C:\Users\HALLER~1\AppData\Local\Temp\ccCPGqMx.s 			page 14


 567              		.loc 1 83 0
 568 003a 6560     		str	r5, [r4, #4]
  84:transmitter.c ****         }
 569              		.loc 1 84 0
 570 003c 0E4B     		ldr	r3, .L49
 571 003e 1D70     		strb	r5, [r3]
 572 0040 38BD     		pop	{r3, r4, r5, pc}
 573              	.LVL75:
 574              	.L44:
  88:transmitter.c ****             USBUART_PutChar(c);
 575              		.loc 1 88 0
 576 0042 0D28     		cmp	r0, #13
 577 0044 08D0     		beq	.L47
  89:transmitter.c ****             text[textSize++] = c;
 578              		.loc 1 89 0
 579 0046 FFF7FEFF 		bl	USBUART_PutChar
 580              	.LVL76:
  90:transmitter.c ****         }
 581              		.loc 1 90 0
 582 004a 0C4A     		ldr	r2, .L49+4
 583 004c 5368     		ldr	r3, [r2, #4]
 584 004e 591C     		adds	r1, r3, #1
 585 0050 5160     		str	r1, [r2, #4]
 586 0052 1344     		add	r3, r3, r2
 587 0054 1C72     		strb	r4, [r3, #8]
 588 0056 38BD     		pop	{r3, r4, r5, pc}
 589              	.LVL77:
 590              	.L47:
  93:transmitter.c ****             createAndSendMessage(text, textSize, destination);
 591              		.loc 1 93 0
 592 0058 0A48     		ldr	r0, .L49+12
 593              	.LVL78:
 594 005a FFF7FEFF 		bl	USBUART_PutString
 595              	.LVL79:
  94:transmitter.c ****             textSize = 0;
 596              		.loc 1 94 0
 597 005e 074C     		ldr	r4, .L49+4
 598 0060 626B     		ldr	r2, [r4, #52]
 599 0062 6168     		ldr	r1, [r4, #4]
 600 0064 04F10800 		add	r0, r4, #8
 601 0068 FFF7FEFF 		bl	createAndSendMessage
 602              	.LVL80:
  95:transmitter.c ****             gettingDestination = true;
 603              		.loc 1 95 0
 604 006c 0023     		movs	r3, #0
 605 006e 6360     		str	r3, [r4, #4]
  96:transmitter.c ****         }
 606              		.loc 1 96 0
 607 0070 0122     		movs	r2, #1
 608 0072 014B     		ldr	r3, .L49
 609 0074 1A70     		strb	r2, [r3]
 610 0076 38BD     		pop	{r3, r4, r5, pc}
 611              	.L50:
 612              		.align	2
 613              	.L49:
 614 0078 00000000 		.word	.LANCHOR1
 615 007c 00000000 		.word	.LANCHOR0
ARM GAS  C:\Users\HALLER~1\AppData\Local\Temp\ccCPGqMx.s 			page 15


 616 0080 00000000 		.word	.LC0
 617 0084 14000000 		.word	.LC1
 618              		.cfi_endproc
 619              	.LFE66:
 620              		.size	transmitter_uart_handler, .-transmitter_uart_handler
 621              		.global	collisionOccured
 622              		.global	currentState
 623              		.data
 624              		.set	.LANCHOR1,. + 0
 625              		.type	gettingDestination.6494, %object
 626              		.size	gettingDestination.6494, 1
 627              	gettingDestination.6494:
 628 0000 01       		.byte	1
 629              		.section	.rodata.str1.4,"aMS",%progbits,1
 630              		.align	2
 631              	.LC0:
 632 0000 0D0A456E 		.ascii	"\015\012Enter Message: \000"
 632      74657220 
 632      4D657373 
 632      6167653A 
 632      2000
 633 0012 0000     		.space	2
 634              	.LC1:
 635 0014 0D0A4465 		.ascii	"\015\012Destination: \000"
 635      7374696E 
 635      6174696F 
 635      6E3A2000 
 636              		.bss
 637              		.align	2
 638              		.set	.LANCHOR0,. + 0
 639              		.type	collisionOccured, %object
 640              		.size	collisionOccured, 1
 641              	collisionOccured:
 642 0000 00       		.space	1
 643              		.type	currentState, %object
 644              		.size	currentState, 1
 645              	currentState:
 646 0001 00       		.space	1
 647 0002 0000     		.space	2
 648              		.type	textSize.6497, %object
 649              		.size	textSize.6497, 4
 650              	textSize.6497:
 651 0004 00000000 		.space	4
 652              		.type	text.6496, %object
 653              		.size	text.6496, 44
 654              	text.6496:
 655 0008 00000000 		.space	44
 655      00000000 
 655      00000000 
 655      00000000 
 655      00000000 
 656              		.type	destination.6495, %object
 657              		.size	destination.6495, 4
 658              	destination.6495:
 659 0034 00000000 		.space	4
 660              		.text
 661              	.Letext0:
ARM GAS  C:\Users\HALLER~1\AppData\Local\Temp\ccCPGqMx.s 			page 16


 662              		.file 2 "c:\\program files (x86)\\cypress\\psoc creator\\4.1\\psoc creator\\import\\gnu\\arm\\5.4.
 663              		.file 3 "c:\\program files (x86)\\cypress\\psoc creator\\4.1\\psoc creator\\import\\gnu\\arm\\5.4.
 664              		.file 4 "Generated_Source\\PSoC5/cytypes.h"
 665              		.file 5 "Generated_Source\\PSoC5/core_cm3.h"
 666              		.file 6 "globals.h"
 667              		.file 7 "Generated_Source\\PSoC5/IDLE_PIN.h"
 668              		.file 8 "Generated_Source\\PSoC5/BUSY_PIN.h"
 669              		.file 9 "Generated_Source\\PSoC5/COLLISION_PIN.h"
 670              		.file 10 "Generated_Source\\PSoC5/TX_TIMER.h"
 671              		.file 11 "Generated_Source\\PSoC5/RX_PIN.h"
 672              		.file 12 "Generated_Source\\PSoC5/TX_PIN.h"
 673              		.file 13 "Generated_Source\\PSoC5/CyLib.h"
 674              		.file 14 "c:\\program files (x86)\\cypress\\psoc creator\\4.1\\psoc creator\\import\\gnu\\arm\\5.4
 675              		.file 15 "Generated_Source\\PSoC5/USBUART_cdc.h"